target datalayout = "e-m:e-p270:32:32-p271:32:32-p272:64:64-i64:64-i128:128-f80:128-n8:16:32:64-S128"
target triple = "x86_64-pc-linux-gnu"

%"class.cv::Mat" = type { i32, i32, i32, i32, ptr, ptr, ptr, ptr, ptr, ptr, %"struct.cv::MatSize", %"struct.cv::MatStep" }
%"struct.cv::MatSize" = type { ptr }
%"struct.cv::MatStep" = type { ptr, [2 x i64] }
%"class.cv::Size_" = type { i32, i32 }
%"class.cv::Point3_" = type { float, float, float }

; Function Attrs: inlinehint mustprogress nounwind uwtable
define linkonce_odr hidden noundef ptr @_ZN2cv3Mat3ptrINS_7Point3_IfEEEEPT_i(ptr noundef nonnull align 8 dereferenceable(96) %0, i32 noundef %1) #6 comdat align 2 {
  %3 = alloca ptr, align 8
  %4 = alloca i32, align 4
  store ptr %0, ptr %3, align 8, !tbaa !47
  store i32 %1, ptr %4, align 4, !tbaa !3
  %5 = load ptr, ptr %3, align 8
  %6 = getelementptr inbounds nuw %"class.cv::Mat", ptr %5, i32 0, i32 4
  %7 = load ptr, ptr %6, align 8, !tbaa !49
  %8 = getelementptr inbounds nuw %"class.cv::Mat", ptr %5, i32 0, i32 11
  %9 = getelementptr inbounds nuw %"struct.cv::MatStep", ptr %8, i32 0, i32 0
  %10 = load ptr, ptr %9, align 8, !tbaa !89
  %11 = getelementptr inbounds i64, ptr %10, i64 0
  %12 = load i64, ptr %11, align 8, !tbaa !90
  %13 = load i32, ptr %4, align 4, !tbaa !3
  %14 = sext i32 %13 to i64
  %15 = mul i64 %12, %14
  %16 = getelementptr inbounds nuw i8, ptr %7, i64 %15
  ret ptr %16
}

; Function Attrs: mustprogress uwtable
define hidden void @_ZN2cv7details10Chessboard15getObjectPointsERKNS_5Size_IiEEf(ptr dead_on_unwind noalias writable sret(%"class.cv::Mat") align 8 %0, ptr noundef nonnull align 4 dereferenceable(8) %1, float noundef %2) #5 align 2 personality ptr @__gxx_personality_v0 {
  %4 = alloca ptr, align 8
  %5 = alloca ptr, align 8
  %6 = alloca float, align 4
  %7 = alloca i1, align 1
  %8 = alloca i32, align 4
  %9 = alloca i32, align 4
  %10 = alloca i32, align 4
  %11 = alloca ptr, align 8
  %12 = alloca ptr, align 8
  %13 = alloca i32, align 4
  store ptr %0, ptr %4, align 8
  store ptr %1, ptr %5, align 8, !tbaa !151
  store float %2, ptr %6, align 4, !tbaa !7
  store i1 false, ptr %7, align 1
  %14 = load ptr, ptr %5, align 8, !tbaa !151
  %15 = getelementptr inbounds nuw %"class.cv::Size_", ptr %14, i32 0, i32 0
  %16 = load i32, ptr %15, align 4, !tbaa !35
  %17 = load ptr, ptr %5, align 8, !tbaa !151
  %18 = getelementptr inbounds nuw %"class.cv::Size_", ptr %17, i32 0, i32 1
  %19 = load i32, ptr %18, align 4, !tbaa !39
  %20 = mul nsw i32 %16, %19
  call void @_ZN2cv3MatC1Eiii(ptr noundef nonnull align 8 dereferenceable(96) %0, i32 noundef %20, i32 noundef 1, i32 noundef 21)
  call void @llvm.lifetime.start.p0(i64 4, ptr %8) #3
  store i32 0, ptr %8, align 4, !tbaa !3
  br label %21

21:                                               ; preds = %68, %3
  %22 = load i32, ptr %8, align 4, !tbaa !3
  %23 = load ptr, ptr %5, align 8, !tbaa !151
  %24 = getelementptr inbounds nuw %"class.cv::Size_", ptr %23, i32 0, i32 1
  %25 = load i32, ptr %24, align 4, !tbaa !39
  %26 = icmp slt i32 %22, %25
  br i1 %26, label %28, label %27

27:                                               ; preds = %21
  store i32 2, ptr %9, align 4
  call void @llvm.lifetime.end.p0(i64 4, ptr %8) #3
  br label %71

28:                                               ; preds = %21
  call void @llvm.lifetime.start.p0(i64 4, ptr %10) #3
  store i32 0, ptr %10, align 4, !tbaa !3
  br label %29

29:                                               ; preds = %60, %28
  %30 = load i32, ptr %10, align 4, !tbaa !3
  %31 = load ptr, ptr %5, align 8, !tbaa !151
  %32 = getelementptr inbounds nuw %"class.cv::Size_", ptr %31, i32 0, i32 0
  %33 = load i32, ptr %32, align 4, !tbaa !35
  %34 = icmp slt i32 %30, %33
  br i1 %34, label %36, label %35

35:                                               ; preds = %29
  store i32 5, ptr %9, align 4
  call void @llvm.lifetime.end.p0(i64 4, ptr %10) #3
  br label %67

36:                                               ; preds = %29
  call void @llvm.lifetime.start.p0(i64 8, ptr %11) #3
  %37 = load i32, ptr %8, align 4, !tbaa !3
  %38 = load ptr, ptr %5, align 8, !tbaa !151
  %39 = getelementptr inbounds nuw %"class.cv::Size_", ptr %38, i32 0, i32 0
  %40 = load i32, ptr %39, align 4, !tbaa !35
  %41 = mul nsw i32 %37, %40
  %42 = load i32, ptr %10, align 4, !tbaa !3
  %43 = add nsw i32 %41, %42
  %44 = invoke noundef ptr @_ZN2cv3Mat3ptrINS_7Point3_IfEEEEPT_i(ptr noundef nonnull align 8 dereferenceable(96) %0, i32 noundef %43)
          to label %45 unwind label %63

45:                                               ; preds = %36
  store ptr %44, ptr %11, align 8, !tbaa !206
  %46 = load float, ptr %6, align 4, !tbaa !7
  %47 = load i32, ptr %10, align 4, !tbaa !3
  %48 = sitofp i32 %47 to float
  %49 = fmul float %46, %48
  %50 = load ptr, ptr %11, align 8, !tbaa !206
  %51 = getelementptr inbounds nuw %"class.cv::Point3_", ptr %50, i32 0, i32 0
  store float %49, ptr %51, align 4, !tbaa !208
  %52 = load float, ptr %6, align 4, !tbaa !7
  %53 = load i32, ptr %8, align 4, !tbaa !3
  %54 = sitofp i32 %53 to float
  %55 = fmul float %52, %54
  %56 = load ptr, ptr %11, align 8, !tbaa !206
  %57 = getelementptr inbounds nuw %"class.cv::Point3_", ptr %56, i32 0, i32 1
  store float %55, ptr %57, align 4, !tbaa !210
  %58 = load ptr, ptr %11, align 8, !tbaa !206
  %59 = getelementptr inbounds nuw %"class.cv::Point3_", ptr %58, i32 0, i32 2
  store float 0.000000e+00, ptr %59, align 4, !tbaa !211
  call void @llvm.lifetime.end.p0(i64 8, ptr %11) #3
  br label %60

60:                                               ; preds = %45
  %61 = load i32, ptr %10, align 4, !tbaa !3
  %62 = add nsw i32 %61, 1
  store i32 %62, ptr %10, align 4, !tbaa !3
  br label %29, !llvm.loop !212

63:                                               ; preds = %36
  %64 = landingpad { ptr, i32 }
          cleanup
  %65 = extractvalue { ptr, i32 } %64, 0
  store ptr %65, ptr %12, align 8
  %66 = extractvalue { ptr, i32 } %64, 1
  store i32 %66, ptr %13, align 4
  call void @llvm.lifetime.end.p0(i64 8, ptr %11) #3
  call void @llvm.lifetime.end.p0(i64 4, ptr %10) #3
  call void @llvm.lifetime.end.p0(i64 4, ptr %8) #3
  call void @_ZN2cv3MatD1Ev(ptr noundef nonnull align 8 dereferenceable(96) %0) #3
  br label %75

67:                                               ; preds = %35
  br label %68

68:                                               ; preds = %67
  %69 = load i32, ptr %8, align 4, !tbaa !3
  %70 = add nsw i32 %69, 1
  store i32 %70, ptr %8, align 4, !tbaa !3
  br label %21, !llvm.loop !213

71:                                               ; preds = %27
  store i1 true, ptr %7, align 1
  store i32 1, ptr %9, align 4
  %72 = load i1, ptr %7, align 1
  br i1 %72, label %74, label %73

73:                                               ; preds = %71
  call void @_ZN2cv3MatD1Ev(ptr noundef nonnull align 8 dereferenceable(96) %0) #3
  br label %74

74:                                               ; preds = %73, %71
  ret void

75:                                               ; preds = %63
  %76 = load ptr, ptr %12, align 8
  %77 = load i32, ptr %13, align 4
  %78 = insertvalue { ptr, i32 } poison, ptr %76, 0
  %79 = insertvalue { ptr, i32 } %78, i32 %77, 1
  resume { ptr, i32 } %79
}