; Function Attrs: mustprogress uwtable
define hidden void @_ZN2cv7details10Chessboard15getObjectPointsERKNS_5Size_IiEEf(ptr dead_on_unwind noalias nonnull writable sret(%"class.cv::Mat") align 8 %0, ptr noundef nonnull readonly align 4 captures(none) dereferenceable(8) %1, float noundef %2) local_unnamed_addr #5 align 2 personality ptr @__gxx_personality_v0 {
  %4 = load i32, ptr %1, align 4, !tbaa !117
  %5 = getelementptr inbounds nuw i8, ptr %1, i64 4
  %6 = load i32, ptr %5, align 4, !tbaa !118
  %7 = mul nsw i32 %6, %4
  tail call void @_ZN2cv3MatC1Eiii(ptr noundef nonnull align 8 dereferenceable(96) %0, i32 noundef %7, i32 noundef 1, i32 noundef 21)
  %8 = load i32, ptr %5, align 4, !tbaa !118
  %9 = icmp sgt i32 %8, 0
  br i1 %9, label %.preheader.lr.ph, label %._crit_edge22

.preheader.lr.ph:                                 ; preds = %3
  %10 = load i32, ptr %1, align 4, !tbaa !117
  %11 = icmp sgt i32 %10, 0
  %12 = getelementptr inbounds nuw i8, ptr %0, i64 16
  %13 = load ptr, ptr %12, align 8
  br i1 %11, label %.preheader.lr.ph.split.us, label %._crit_edge22

.preheader.lr.ph.split.us:                        ; preds = %.preheader.lr.ph
  %14 = getelementptr inbounds nuw i8, ptr %0, i64 72
  %15 = load ptr, ptr %14, align 8
  %16 = load i64, ptr %15, align 8, !tbaa !120
  %17 = zext nneg i32 %10 to i64
  %wide.trip.count28 = zext nneg i32 %8 to i64
  br label %.preheader.us

.preheader.us:                                    ; preds = %._crit_edge.us, %.preheader.lr.ph.split.us
  %indvars.iv25 = phi i64 [ %indvars.iv.next26, %._crit_edge.us ], [ 0, %.preheader.lr.ph.split.us ]
  %18 = mul nuw nsw i64 %indvars.iv25, %17
  %19 = trunc nuw nsw i64 %indvars.iv25 to i32
  %20 = uitofp nneg i32 %19 to float
  %21 = fmul float %2, %20
  br label %22

22:                                               ; preds = %.preheader.us, %22
  %indvars.iv = phi i64 [ 0, %.preheader.us ], [ %indvars.iv.next, %22 ]
  %23 = add nuw nsw i64 %18, %indvars.iv
  %24 = mul i64 %16, %23
  %25 = getelementptr inbounds nuw i8, ptr %13, i64 %24
  %26 = trunc nuw nsw i64 %indvars.iv to i32
  %27 = uitofp nneg i32 %26 to float
  %28 = fmul float %2, %27
  store float %28, ptr %25, align 4, !tbaa !172
  %29 = getelementptr inbounds nuw i8, ptr %25, i64 4
  store float %21, ptr %29, align 4, !tbaa !174
  %30 = getelementptr inbounds nuw i8, ptr %25, i64 8
  store float 0.000000e+00, ptr %30, align 4, !tbaa !175
  %indvars.iv.next = add nuw nsw i64 %indvars.iv, 1
  %exitcond.not = icmp eq i64 %indvars.iv.next, %17
  br i1 %exitcond.not, label %._crit_edge.us, label %22, !llvm.loop !176

._crit_edge.us:                                   ; preds = %22
  %indvars.iv.next26 = add nuw nsw i64 %indvars.iv25, 1
  %exitcond29.not = icmp eq i64 %indvars.iv.next26, %wide.trip.count28
  br i1 %exitcond29.not, label %._crit_edge22, label %.preheader.us, !llvm.loop !177

._crit_edge22:                                    ; preds = %._crit_edge.us, %.preheader.lr.ph, %3
  ret void
}